; ModuleID = '37/399.c'
source_filename = "37/399.c"
target datalayout = "e-m:e-p270:32:32-p271:32:32-p272:64:64-i64:64-f80:128-n8:16:32:64-S128"
target triple = "x86_64-pc-linux-gnu"

@.str = private unnamed_addr constant [3 x i8] c"%d\00", align 1
@.str.1 = private unnamed_addr constant [3 x i8] c"%s\00", align 1
@.str.2 = private unnamed_addr constant [3 x i8] c"no\00", align 1
@.str.3 = private unnamed_addr constant [4 x i8] c"%c\0A\00", align 1

; Function Attrs: noinline nounwind uwtable
define dso_local i32 @main() #0 {
  %1 = alloca i32, align 4
  %2 = alloca [100000 x i8], align 16
  %3 = alloca i32, align 4
  %4 = alloca i32, align 4
  %5 = alloca i32, align 4
  %6 = alloca i32, align 4
  %7 = alloca i32, align 4
  %8 = alloca i8, align 1
  %9 = alloca [26 x i32], align 16
  %10 = alloca [26 x i32], align 16
  store i32 0, i32* %1, align 4
  %11 = call i32 (i8*, ...) @__isoc99_scanf(i8* getelementptr inbounds ([3 x i8], [3 x i8]* @.str, i64 0, i64 0), i32* %3)
  store i32 0, i32* %4, align 4
  br label %12

12:                                               ; preds = %107, %0
  %13 = load i32, i32* %4, align 4
  %14 = load i32, i32* %3, align 4
  %15 = icmp slt i32 %13, %14
  br i1 %15, label %16, label %110

16:                                               ; preds = %12
  %17 = bitcast [26 x i32]* %9 to i8*
  call void @llvm.memset.p0i8.i64(i8* align 16 %17, i8 0, i64 104, i1 false)
  %18 = bitcast [26 x i32]* %10 to i8*
  call void @llvm.memset.p0i8.i64(i8* align 16 %18, i8 0, i64 104, i1 false)
  store i32 1, i32* %6, align 4
  %19 = getelementptr inbounds [100000 x i8], [100000 x i8]* %2, i64 0, i64 0
  %20 = call i32 (i8*, ...) @__isoc99_scanf(i8* getelementptr inbounds ([3 x i8], [3 x i8]* @.str.1, i64 0, i64 0), i8* %19)
  %21 = getelementptr inbounds [100000 x i8], [100000 x i8]* %2, i64 0, i64 0
  %22 = call i64 @strlen(i8* %21) #4
  %23 = trunc i64 %22 to i32
  store i32 %23, i32* %7, align 4
  store i32 0, i32* %5, align 4
  br label %24

24:                                               ; preds = %62, %16
  %25 = load i32, i32* %5, align 4
  %26 = load i32, i32* %7, align 4
  %27 = icmp slt i32 %25, %26
  br i1 %27, label %28, label %65

28:                                               ; preds = %24
  %29 = load i32, i32* %5, align 4
  %30 = sext i32 %29 to i64
  %31 = getelementptr inbounds [100000 x i8], [100000 x i8]* %2, i64 0, i64 %30
  %32 = load i8, i8* %31, align 1
  %33 = sext i8 %32 to i32
  %34 = sub nsw i32 %33, 97
  %35 = sext i32 %34 to i64
  %36 = getelementptr inbounds [26 x i32], [26 x i32]* %9, i64 0, i64 %35
  %37 = load i32, i32* %36, align 4
  %38 = add nsw i32 %37, 1
  store i32 %38, i32* %36, align 4
  %39 = load i32, i32* %5, align 4
  %40 = sext i32 %39 to i64
  %41 = getelementptr inbounds [100000 x i8], [100000 x i8]* %2, i64 0, i64 %40
  %42 = load i8, i8* %41, align 1
  %43 = sext i8 %42 to i32
  %44 = sub nsw i32 %43, 97
  %45 = sext i32 %44 to i64
  %46 = getelementptr inbounds [26 x i32], [26 x i32]* %10, i64 0, i64 %45
  %47 = load i32, i32* %46, align 4
  %48 = icmp eq i32 %47, 0
  br i1 %48, label %49, label %61

49:                                               ; preds = %28
  %50 = load i32, i32* %6, align 4
  %51 = load i32, i32* %5, align 4
  %52 = sext i32 %51 to i64
  %53 = getelementptr inbounds [100000 x i8], [100000 x i8]* %2, i64 0, i64 %52
  %54 = load i8, i8* %53, align 1
  %55 = sext i8 %54 to i32
  %56 = sub nsw i32 %55, 97
  %57 = sext i32 %56 to i64
  %58 = getelementptr inbounds [26 x i32], [26 x i32]* %10, i64 0, i64 %57
  store i32 %50, i32* %58, align 4
  %59 = load i32, i32* %6, align 4
  %60 = add nsw i32 %59, 1
  store i32 %60, i32* %6, align 4
  br label %61

61:                                               ; preds = %49, %28
  br label %62

62:                                               ; preds = %61
  %63 = load i32, i32* %5, align 4
  %64 = add nsw i32 %63, 1
  store i32 %64, i32* %5, align 4
  br label %24

65:                                               ; preds = %24
  store i32 0, i32* %5, align 4
  store i32 0, i32* %6, align 4
  br label %66

66:                                               ; preds = %94, %65
  %67 = load i32, i32* %6, align 4
  %68 = icmp slt i32 %67, 26
  br i1 %68, label %69, label %97

69:                                               ; preds = %66
  %70 = load i32, i32* %6, align 4
  %71 = sext i32 %70 to i64
  %72 = getelementptr inbounds [26 x i32], [26 x i32]* %9, i64 0, i64 %71
  %73 = load i32, i32* %72, align 4
  %74 = icmp eq i32 %73, 1
  br i1 %74, label %75, label %93

75:                                               ; preds = %69
  %76 = load i32, i32* %6, align 4
  %77 = sext i32 %76 to i64
  %78 = getelementptr inbounds [26 x i32], [26 x i32]* %10, i64 0, i64 %77
  %79 = load i32, i32* %78, align 4
  %80 = load i32, i32* %7, align 4
  %81 = icmp slt i32 %79, %80
  br i1 %81, label %82, label %90

82:                                               ; preds = %75
  %83 = load i32, i32* %6, align 4
  %84 = add nsw i32 %83, 97
  %85 = trunc i32 %84 to i8
  store i8 %85, i8* %8, align 1
  %86 = load i32, i32* %6, align 4
  %87 = sext i32 %86 to i64
  %88 = getelementptr inbounds [26 x i32], [26 x i32]* %10, i64 0, i64 %87
  %89 = load i32, i32* %88, align 4
  store i32 %89, i32* %7, align 4
  br label %90

90:                                               ; preds = %82, %75
  %91 = load i32, i32* %5, align 4
  %92 = add nsw i32 %91, 1
  store i32 %92, i32* %5, align 4
  br label %93

93:                                               ; preds = %90, %69
  br label %94

94:                                               ; preds = %93
  %95 = load i32, i32* %6, align 4
  %96 = add nsw i32 %95, 1
  store i32 %96, i32* %6, align 4
  br label %66

97:                                               ; preds = %66
  %98 = load i32, i32* %5, align 4
  %99 = icmp eq i32 %98, 0
  br i1 %99, label %100, label %102

100:                                              ; preds = %97
  %101 = call i32 (i8*, ...) @printf(i8* getelementptr inbounds ([3 x i8], [3 x i8]* @.str.2, i64 0, i64 0))
  br label %106

102:                                              ; preds = %97
  %103 = load i8, i8* %8, align 1
  %104 = sext i8 %103 to i32
  %105 = call i32 (i8*, ...) @printf(i8* getelementptr inbounds ([4 x i8], [4 x i8]* @.str.3, i64 0, i64 0), i32 %104)
  br label %106

106:                                              ; preds = %102, %100
  br label %107

107:                                              ; preds = %106
  %108 = load i32, i32* %4, align 4
  %109 = add nsw i32 %108, 1
  store i32 %109, i32* %4, align 4
  br label %12

110:                                              ; preds = %12
  %111 = call i32 @getchar()
  %112 = call i32 @getchar()
  %113 = load i32, i32* %1, align 4
  ret i32 %113
}

declare dso_local i32 @__isoc99_scanf(i8*, ...) #1

; Function Attrs: argmemonly nounwind willreturn
declare void @llvm.memset.p0i8.i64(i8* nocapture writeonly, i8, i64, i1 immarg) #2

; Function Attrs: nounwind readonly
declare dso_local i64 @strlen(i8*) #3

declare dso_local i32 @printf(i8*, ...) #1

declare dso_local i32 @getchar() #1


!llvm.module.flags = !{!0}
!llvm.ident = !{!1}

!0 = !{i32 1, !"wchar_size", i32 4}
!1 = !{!"clang version 10.0.0-4ubuntu1 "}
